; Function Attrs: mustprogress uwtable
define hidden noundef zeroext i1 @_ZN20non_auf_macro_solver9add_macroEP9func_declP4expr(ptr nocapture noundef nonnull readonly align 8 dereferenceable(44) %this, ptr noundef %f, ptr noundef %f_else) local_unnamed_addr #3 align 2 {
entry:
  %m_dependencies = getelementptr inbounds i8, ptr %this, i64 32
  %call.i = tail call noalias noundef ptr @_ZN6memory8allocateEm(i64 noundef 24)
  %call.i.i.i.i.i = tail call noalias noundef ptr @_ZN6memory8allocateEm(i64 noundef 64)
  tail call void @llvm.memset.p0.i64(ptr noundef nonnull align 8 dereferenceable(64) %call.i.i.i.i.i, i8 0, i64 64, i1 false)
  store ptr %call.i.i.i.i.i, ptr %call.i, align 8
  %m_capacity.i.i.i = getelementptr inbounds i8, ptr %call.i, i64 8
  store i32 8, ptr %m_capacity.i.i.i, align 8
  %m_size.i.i.i = getelementptr inbounds i8, ptr %call.i, i64 12
  store i32 0, ptr %m_size.i.i.i, align 4
  %m_num_deleted.i.i.i = getelementptr inbounds i8, ptr %call.i, i64 16
  store i32 0, ptr %m_num_deleted.i.i.i, align 8
  %0 = load ptr, ptr %m_dependencies, align 8
  tail call void @_ZN22func_decl_dependencies21collect_ng_func_declsEP4exprP13obj_hashtableI9func_declE(ptr noundef nonnull align 8 dereferenceable(32) %0, ptr noundef %f_else, ptr noundef nonnull %call.i)
  %1 = load ptr, ptr %m_dependencies, align 8
  %call4 = tail call noundef zeroext i1 @_ZN22func_decl_dependencies6insertEP9func_declP13obj_hashtableIS0_E(ptr noundef nonnull align 8 dereferenceable(32) %1, ptr noundef %f, ptr noundef nonnull %call.i)
  br i1 %call4, label %if.end, label %return

if.end:                                           ; preds = %entry
  tail call void @_ZN17base_macro_solver15set_else_interpEP9func_declP4expr(ptr noundef nonnull align 8 dereferenceable(32) %this, ptr noundef %f, ptr noundef %f_else)
  br label %return

return:                                           ; preds = %entry, %if.end
  ret i1 %call4
}